target datalayout = "e-m:e-p270:32:32-p271:32:32-p272:64:64-i64:64-i128:128-f80:128-n8:16:32:64-S128"
target triple = "x86_64-pc-linux-gnu"

%struct.MinMaxLen = type { i64, i64 }
%struct.OptAncInfo = type { i32, i32 }
%struct.OptExactInfo = type { %struct.MinMaxLen, %struct.OptAncInfo, i32, i32, i32, [24 x i8] }
%struct.OptEnv = type { %struct.MinMaxLen, ptr, i32, i32, ptr }
%struct.OnigEncodingTypeST = type { ptr, ptr, i32, i32, ptr, ptr, ptr, ptr, ptr, ptr, ptr, ptr, ptr, ptr, ptr, ptr, ptr, i32, i32 }

; Function Attrs: nounwind sspstrong uwtable
define internal void @clear_opt_anc_info(ptr noundef %0) #0 {
  %2 = alloca ptr, align 8
  store ptr %0, ptr %2, align 8, !tbaa !36
  %3 = load ptr, ptr %2, align 8, !tbaa !36
  %4 = getelementptr inbounds nuw %struct.OptAncInfo, ptr %3, i32 0, i32 0
  store i32 0, ptr %4, align 4, !tbaa !260
  %5 = load ptr, ptr %2, align 8, !tbaa !36
  %6 = getelementptr inbounds nuw %struct.OptAncInfo, ptr %5, i32 0, i32 1
  store i32 0, ptr %6, align 4, !tbaa !261
  ret void
}

; Function Attrs: nounwind sspstrong uwtable
define internal void @clear_mml(ptr noundef %0) #0 {
  %2 = alloca ptr, align 8
  store ptr %0, ptr %2, align 8, !tbaa !36
  %3 = load ptr, ptr %2, align 8, !tbaa !36
  %4 = getelementptr inbounds nuw %struct.MinMaxLen, ptr %3, i32 0, i32 1
  store i64 0, ptr %4, align 8, !tbaa !235
  %5 = load ptr, ptr %2, align 8, !tbaa !36
  %6 = getelementptr inbounds nuw %struct.MinMaxLen, ptr %5, i32 0, i32 0
  store i64 0, ptr %6, align 8, !tbaa !236
  ret void
}

; Function Attrs: nounwind sspstrong uwtable
define internal void @alt_merge_opt_anc_info(ptr noundef %0, ptr noundef %1) #0 {
  %3 = alloca ptr, align 8
  %4 = alloca ptr, align 8
  store ptr %0, ptr %3, align 8, !tbaa !36
  store ptr %1, ptr %4, align 8, !tbaa !36
  %5 = load ptr, ptr %4, align 8, !tbaa !36
  %6 = getelementptr inbounds nuw %struct.OptAncInfo, ptr %5, i32 0, i32 0
  %7 = load i32, ptr %6, align 4, !tbaa !260
  %8 = load ptr, ptr %3, align 8, !tbaa !36
  %9 = getelementptr inbounds nuw %struct.OptAncInfo, ptr %8, i32 0, i32 0
  %10 = load i32, ptr %9, align 4, !tbaa !260
  %11 = and i32 %10, %7
  store i32 %11, ptr %9, align 4, !tbaa !260
  %12 = load ptr, ptr %4, align 8, !tbaa !36
  %13 = getelementptr inbounds nuw %struct.OptAncInfo, ptr %12, i32 0, i32 1
  %14 = load i32, ptr %13, align 4, !tbaa !261
  %15 = load ptr, ptr %3, align 8, !tbaa !36
  %16 = getelementptr inbounds nuw %struct.OptAncInfo, ptr %15, i32 0, i32 1
  %17 = load i32, ptr %16, align 4, !tbaa !261
  %18 = and i32 %17, %14
  store i32 %18, ptr %16, align 4, !tbaa !261
  ret void
}

; Function Attrs: nounwind sspstrong uwtable
define internal i32 @is_equal_mml(ptr noundef %0, ptr noundef %1) #0 {
  %3 = alloca ptr, align 8
  %4 = alloca ptr, align 8
  store ptr %0, ptr %3, align 8, !tbaa !36
  store ptr %1, ptr %4, align 8, !tbaa !36
  %5 = load ptr, ptr %3, align 8, !tbaa !36
  %6 = getelementptr inbounds nuw %struct.MinMaxLen, ptr %5, i32 0, i32 0
  %7 = load i64, ptr %6, align 8, !tbaa !236
  %8 = load ptr, ptr %4, align 8, !tbaa !36
  %9 = getelementptr inbounds nuw %struct.MinMaxLen, ptr %8, i32 0, i32 0
  %10 = load i64, ptr %9, align 8, !tbaa !236
  %11 = icmp eq i64 %7, %10
  br i1 %11, label %12, label %20

12:                                               ; preds = %2
  %13 = load ptr, ptr %3, align 8, !tbaa !36
  %14 = getelementptr inbounds nuw %struct.MinMaxLen, ptr %13, i32 0, i32 1
  %15 = load i64, ptr %14, align 8, !tbaa !235
  %16 = load ptr, ptr %4, align 8, !tbaa !36
  %17 = getelementptr inbounds nuw %struct.MinMaxLen, ptr %16, i32 0, i32 1
  %18 = load i64, ptr %17, align 8, !tbaa !235
  %19 = icmp eq i64 %15, %18
  br label %20

20:                                               ; preds = %12, %2
  %21 = phi i1 [ false, %2 ], [ %19, %12 ]
  %22 = select i1 %21, i32 1, i32 0
  ret i32 %22
}

; Function Attrs: nounwind sspstrong uwtable
define internal void @clear_opt_exact_info(ptr noundef %0) #0 {
  %2 = alloca ptr, align 8
  store ptr %0, ptr %2, align 8, !tbaa !36
  %3 = load ptr, ptr %2, align 8, !tbaa !36
  %4 = getelementptr inbounds nuw %struct.OptExactInfo, ptr %3, i32 0, i32 0
  call void @clear_mml(ptr noundef %4)
  %5 = load ptr, ptr %2, align 8, !tbaa !36
  %6 = getelementptr inbounds nuw %struct.OptExactInfo, ptr %5, i32 0, i32 1
  call void @clear_opt_anc_info(ptr noundef %6)
  %7 = load ptr, ptr %2, align 8, !tbaa !36
  %8 = getelementptr inbounds nuw %struct.OptExactInfo, ptr %7, i32 0, i32 2
  store i32 0, ptr %8, align 8, !tbaa !281
  %9 = load ptr, ptr %2, align 8, !tbaa !36
  %10 = getelementptr inbounds nuw %struct.OptExactInfo, ptr %9, i32 0, i32 3
  store i32 -1, ptr %10, align 4, !tbaa !253
  %11 = load ptr, ptr %2, align 8, !tbaa !36
  %12 = getelementptr inbounds nuw %struct.OptExactInfo, ptr %11, i32 0, i32 4
  store i32 0, ptr %12, align 8, !tbaa !252
  %13 = load ptr, ptr %2, align 8, !tbaa !36
  %14 = getelementptr inbounds nuw %struct.OptExactInfo, ptr %13, i32 0, i32 5
  %15 = getelementptr [24 x i8], ptr %14, i64 0, i64 0
  store i8 0, ptr %15, align 4, !tbaa !38
  ret void
}

; Function Attrs: nounwind sspstrong uwtable
define internal void @alt_merge_opt_exact_info(ptr noundef %0, ptr noundef %1, ptr noundef %2) #0 {
  %4 = alloca ptr, align 8
  %5 = alloca ptr, align 8
  %6 = alloca ptr, align 8
  %7 = alloca i32, align 4
  %8 = alloca i32, align 4
  %9 = alloca i32, align 4
  %10 = alloca i32, align 4
  store ptr %0, ptr %4, align 8, !tbaa !36
  store ptr %1, ptr %5, align 8, !tbaa !36
  store ptr %2, ptr %6, align 8, !tbaa !36
  call void @llvm.lifetime.start.p0(i64 4, ptr %7) #11
  call void @llvm.lifetime.start.p0(i64 4, ptr %8) #11
  call void @llvm.lifetime.start.p0(i64 4, ptr %9) #11
  %11 = load ptr, ptr %5, align 8, !tbaa !36
  %12 = getelementptr inbounds nuw %struct.OptExactInfo, ptr %11, i32 0, i32 4
  %13 = load i32, ptr %12, align 8, !tbaa !252
  %14 = icmp eq i32 %13, 0
  br i1 %14, label %20, label %15

15:                                               ; preds = %3
  %16 = load ptr, ptr %4, align 8, !tbaa !36
  %17 = getelementptr inbounds nuw %struct.OptExactInfo, ptr %16, i32 0, i32 4
  %18 = load i32, ptr %17, align 8, !tbaa !252
  %19 = icmp eq i32 %18, 0
  br i1 %19, label %20, label %22

20:                                               ; preds = %15, %3
  %21 = load ptr, ptr %4, align 8, !tbaa !36
  call void @clear_opt_exact_info(ptr noundef %21)
  store i32 1, ptr %10, align 4
  br label %221

22:                                               ; preds = %15
  %23 = load ptr, ptr %4, align 8, !tbaa !36
  %24 = getelementptr inbounds nuw %struct.OptExactInfo, ptr %23, i32 0, i32 0
  %25 = load ptr, ptr %5, align 8, !tbaa !36
  %26 = getelementptr inbounds nuw %struct.OptExactInfo, ptr %25, i32 0, i32 0
  %27 = call i32 @is_equal_mml(ptr noundef %24, ptr noundef %26)
  %28 = icmp ne i32 %27, 0
  br i1 %28, label %31, label %29

29:                                               ; preds = %22
  %30 = load ptr, ptr %4, align 8, !tbaa !36
  call void @clear_opt_exact_info(ptr noundef %30)
  store i32 1, ptr %10, align 4
  br label %221

31:                                               ; preds = %22
  store i32 0, ptr %7, align 4, !tbaa !7
  br label %32

32:                                               ; preds = %155, %31
  %33 = load i32, ptr %7, align 4, !tbaa !7
  %34 = load ptr, ptr %4, align 8, !tbaa !36
  %35 = getelementptr inbounds nuw %struct.OptExactInfo, ptr %34, i32 0, i32 4
  %36 = load i32, ptr %35, align 8, !tbaa !252
  %37 = icmp slt i32 %33, %36
  br i1 %37, label %38, label %44

38:                                               ; preds = %32
  %39 = load i32, ptr %7, align 4, !tbaa !7
  %40 = load ptr, ptr %5, align 8, !tbaa !36
  %41 = getelementptr inbounds nuw %struct.OptExactInfo, ptr %40, i32 0, i32 4
  %42 = load i32, ptr %41, align 8, !tbaa !252
  %43 = icmp slt i32 %39, %42
  br label %44

44:                                               ; preds = %38, %32
  %45 = phi i1 [ false, %32 ], [ %43, %38 ]
  br i1 %45, label %46, label %159

46:                                               ; preds = %44
  %47 = load ptr, ptr %4, align 8, !tbaa !36
  %48 = getelementptr inbounds nuw %struct.OptExactInfo, ptr %47, i32 0, i32 5
  %49 = load i32, ptr %7, align 4, !tbaa !7
  %50 = sext i32 %49 to i64
  %51 = getelementptr [24 x i8], ptr %48, i64 0, i64 %50
  %52 = load i8, ptr %51, align 1, !tbaa !38
  %53 = zext i8 %52 to i32
  %54 = load ptr, ptr %5, align 8, !tbaa !36
  %55 = getelementptr inbounds nuw %struct.OptExactInfo, ptr %54, i32 0, i32 5
  %56 = load i32, ptr %7, align 4, !tbaa !7
  %57 = sext i32 %56 to i64
  %58 = getelementptr [24 x i8], ptr %55, i64 0, i64 %57
  %59 = load i8, ptr %58, align 1, !tbaa !38
  %60 = zext i8 %59 to i32
  %61 = icmp ne i32 %53, %60
  br i1 %61, label %62, label %63

62:                                               ; preds = %46
  br label %159

63:                                               ; preds = %46
  %64 = load ptr, ptr %6, align 8, !tbaa !36
  %65 = getelementptr inbounds nuw %struct.OptEnv, ptr %64, i32 0, i32 1
  %66 = load ptr, ptr %65, align 8, !tbaa !143
  %67 = getelementptr inbounds nuw %struct.OnigEncodingTypeST, ptr %66, i32 0, i32 2
  %68 = load i32, ptr %67, align 8, !tbaa !205
  %69 = load ptr, ptr %6, align 8, !tbaa !36
  %70 = getelementptr inbounds nuw %struct.OptEnv, ptr %69, i32 0, i32 1
  %71 = load ptr, ptr %70, align 8, !tbaa !143
  %72 = getelementptr inbounds nuw %struct.OnigEncodingTypeST, ptr %71, i32 0, i32 3
  %73 = load i32, ptr %72, align 4, !tbaa !189
  %74 = icmp eq i32 %68, %73
  br i1 %74, label %75, label %100

75:                                               ; preds = %63
  %76 = load ptr, ptr %4, align 8, !tbaa !36
  %77 = getelementptr inbounds nuw %struct.OptExactInfo, ptr %76, i32 0, i32 5
  %78 = getelementptr inbounds [24 x i8], ptr %77, i64 0, i64 0
  %79 = load i32, ptr %7, align 4, !tbaa !7
  %80 = sext i32 %79 to i64
  %81 = getelementptr i8, ptr %78, i64 %80
  %82 = load ptr, ptr %4, align 8, !tbaa !36
  %83 = getelementptr inbounds nuw %struct.OptExactInfo, ptr %82, i32 0, i32 5
  %84 = getelementptr inbounds [24 x i8], ptr %83, i64 0, i64 0
  %85 = load ptr, ptr %4, align 8, !tbaa !36
  %86 = getelementptr inbounds nuw %struct.OptExactInfo, ptr %85, i32 0, i32 4
  %87 = load i32, ptr %86, align 8, !tbaa !252
  %88 = sext i32 %87 to i64
  %89 = getelementptr i8, ptr %84, i64 %88
  %90 = icmp ult ptr %81, %89
  br i1 %90, label %91, label %97

91:                                               ; preds = %75
  %92 = load ptr, ptr %6, align 8, !tbaa !36
  %93 = getelementptr inbounds nuw %struct.OptEnv, ptr %92, i32 0, i32 1
  %94 = load ptr, ptr %93, align 8, !tbaa !143
  %95 = getelementptr inbounds nuw %struct.OnigEncodingTypeST, ptr %94, i32 0, i32 3
  %96 = load i32, ptr %95, align 4, !tbaa !189
  br label %98

97:                                               ; preds = %75
  br label %98

98:                                               ; preds = %97, %91
  %99 = phi i32 [ %96, %91 ], [ 0, %97 ]
  br label %119

100:                                              ; preds = %63
  %101 = load ptr, ptr %4, align 8, !tbaa !36
  %102 = getelementptr inbounds nuw %struct.OptExactInfo, ptr %101, i32 0, i32 5
  %103 = getelementptr inbounds [24 x i8], ptr %102, i64 0, i64 0
  %104 = load i32, ptr %7, align 4, !tbaa !7
  %105 = sext i32 %104 to i64
  %106 = getelementptr i8, ptr %103, i64 %105
  %107 = load ptr, ptr %4, align 8, !tbaa !36
  %108 = getelementptr inbounds nuw %struct.OptExactInfo, ptr %107, i32 0, i32 5
  %109 = getelementptr inbounds [24 x i8], ptr %108, i64 0, i64 0
  %110 = load ptr, ptr %4, align 8, !tbaa !36
  %111 = getelementptr inbounds nuw %struct.OptExactInfo, ptr %110, i32 0, i32 4
  %112 = load i32, ptr %111, align 8, !tbaa !252
  %113 = sext i32 %112 to i64
  %114 = getelementptr i8, ptr %109, i64 %113
  %115 = load ptr, ptr %6, align 8, !tbaa !36
  %116 = getelementptr inbounds nuw %struct.OptEnv, ptr %115, i32 0, i32 1
  %117 = load ptr, ptr %116, align 8, !tbaa !143
  %118 = call i32 @onigenc_mbclen(ptr noundef %106, ptr noundef %114, ptr noundef %117)
  br label %119

119:                                              ; preds = %100, %98
  %120 = phi i32 [ %99, %98 ], [ %118, %100 ]
  store i32 %120, ptr %9, align 4, !tbaa !7
  store i32 1, ptr %8, align 4, !tbaa !7
  br label %121

121:                                              ; preds = %147, %119
  %122 = load i32, ptr %8, align 4, !tbaa !7
  %123 = load i32, ptr %9, align 4, !tbaa !7
  %124 = icmp slt i32 %122, %123
  br i1 %124, label %125, label %150

125:                                              ; preds = %121
  %126 = load ptr, ptr %4, align 8, !tbaa !36
  %127 = getelementptr inbounds nuw %struct.OptExactInfo, ptr %126, i32 0, i32 5
  %128 = load i32, ptr %7, align 4, !tbaa !7
  %129 = load i32, ptr %8, align 4, !tbaa !7
  %130 = add i32 %128, %129
  %131 = sext i32 %130 to i64
  %132 = getelementptr [24 x i8], ptr %127, i64 0, i64 %131
  %133 = load i8, ptr %132, align 1, !tbaa !38
  %134 = zext i8 %133 to i32
  %135 = load ptr, ptr %5, align 8, !tbaa !36
  %136 = getelementptr inbounds nuw %struct.OptExactInfo, ptr %135, i32 0, i32 5
  %137 = load i32, ptr %7, align 4, !tbaa !7
  %138 = load i32, ptr %8, align 4, !tbaa !7
  %139 = add i32 %137, %138
  %140 = sext i32 %139 to i64
  %141 = getelementptr [24 x i8], ptr %136, i64 0, i64 %140
  %142 = load i8, ptr %141, align 1, !tbaa !38
  %143 = zext i8 %142 to i32
  %144 = icmp ne i32 %134, %143
  br i1 %144, label %145, label %146

145:                                              ; preds = %125
  br label %150

146:                                              ; preds = %125
  br label %147

147:                                              ; preds = %146
  %148 = load i32, ptr %8, align 4, !tbaa !7
  %149 = add i32 %148, 1
  store i32 %149, ptr %8, align 4, !tbaa !7
  br label %121, !llvm.loop !285

150:                                              ; preds = %145, %121
  %151 = load i32, ptr %8, align 4, !tbaa !7
  %152 = load i32, ptr %9, align 4, !tbaa !7
  %153 = icmp slt i32 %151, %152
  br i1 %153, label %154, label %155

154:                                              ; preds = %150
  br label %159

155:                                              ; preds = %150
  %156 = load i32, ptr %9, align 4, !tbaa !7
  %157 = load i32, ptr %7, align 4, !tbaa !7
  %158 = add i32 %157, %156
  store i32 %158, ptr %7, align 4, !tbaa !7
  br label %32, !llvm.loop !286

159:                                              ; preds = %154, %62, %44
  %160 = load ptr, ptr %5, align 8, !tbaa !36
  %161 = getelementptr inbounds nuw %struct.OptExactInfo, ptr %160, i32 0, i32 2
  %162 = load i32, ptr %161, align 8, !tbaa !281
  %163 = icmp ne i32 %162, 0
  br i1 %163, label %164, label %176

164:                                              ; preds = %159
  %165 = load i32, ptr %7, align 4, !tbaa !7
  %166 = load ptr, ptr %5, align 8, !tbaa !36
  %167 = getelementptr inbounds nuw %struct.OptExactInfo, ptr %166, i32 0, i32 4
  %168 = load i32, ptr %167, align 8, !tbaa !252
  %169 = icmp slt i32 %165, %168
  br i1 %169, label %176, label %170

170:                                              ; preds = %164
  %171 = load i32, ptr %7, align 4, !tbaa !7
  %172 = load ptr, ptr %4, align 8, !tbaa !36
  %173 = getelementptr inbounds nuw %struct.OptExactInfo, ptr %172, i32 0, i32 4
  %174 = load i32, ptr %173, align 8, !tbaa !252
  %175 = icmp slt i32 %171, %174
  br i1 %175, label %176, label %179

176:                                              ; preds = %170, %164, %159
  %177 = load ptr, ptr %4, align 8, !tbaa !36
  %178 = getelementptr inbounds nuw %struct.OptExactInfo, ptr %177, i32 0, i32 2
  store i32 0, ptr %178, align 8, !tbaa !281
  br label %179

179:                                              ; preds = %176, %170
  %180 = load i32, ptr %7, align 4, !tbaa !7
  %181 = load ptr, ptr %4, align 8, !tbaa !36
  %182 = getelementptr inbounds nuw %struct.OptExactInfo, ptr %181, i32 0, i32 4
  store i32 %180, ptr %182, align 8, !tbaa !252
  %183 = load ptr, ptr %4, align 8, !tbaa !36
  %184 = getelementptr inbounds nuw %struct.OptExactInfo, ptr %183, i32 0, i32 3
  %185 = load i32, ptr %184, align 4, !tbaa !253
  %186 = icmp slt i32 %185, 0
  br i1 %186, label %187, label %193

187:                                              ; preds = %179
  %188 = load ptr, ptr %5, align 8, !tbaa !36
  %189 = getelementptr inbounds nuw %struct.OptExactInfo, ptr %188, i32 0, i32 3
  %190 = load i32, ptr %189, align 4, !tbaa !253
  %191 = load ptr, ptr %4, align 8, !tbaa !36
  %192 = getelementptr inbounds nuw %struct.OptExactInfo, ptr %191, i32 0, i32 3
  store i32 %190, ptr %192, align 4, !tbaa !253
  br label %207

193:                                              ; preds = %179
  %194 = load ptr, ptr %5, align 8, !tbaa !36
  %195 = getelementptr inbounds nuw %struct.OptExactInfo, ptr %194, i32 0, i32 3
  %196 = load i32, ptr %195, align 4, !tbaa !253
  %197 = icmp sge i32 %196, 0
  br i1 %197, label %198, label %206

198:                                              ; preds = %193
  %199 = load ptr, ptr %5, align 8, !tbaa !36
  %200 = getelementptr inbounds nuw %struct.OptExactInfo, ptr %199, i32 0, i32 3
  %201 = load i32, ptr %200, align 4, !tbaa !253
  %202 = load ptr, ptr %4, align 8, !tbaa !36
  %203 = getelementptr inbounds nuw %struct.OptExactInfo, ptr %202, i32 0, i32 3
  %204 = load i32, ptr %203, align 4, !tbaa !253
  %205 = or i32 %204, %201
  store i32 %205, ptr %203, align 4, !tbaa !253
  br label %206

206:                                              ; preds = %198, %193
  br label %207

207:                                              ; preds = %206, %187
  %208 = load ptr, ptr %4, align 8, !tbaa !36
  %209 = getelementptr inbounds nuw %struct.OptExactInfo, ptr %208, i32 0, i32 1
  %210 = load ptr, ptr %5, align 8, !tbaa !36
  %211 = getelementptr inbounds nuw %struct.OptExactInfo, ptr %210, i32 0, i32 1
  call void @alt_merge_opt_anc_info(ptr noundef %209, ptr noundef %211)
  %212 = load ptr, ptr %4, align 8, !tbaa !36
  %213 = getelementptr inbounds nuw %struct.OptExactInfo, ptr %212, i32 0, i32 2
  %214 = load i32, ptr %213, align 8, !tbaa !281
  %215 = icmp ne i32 %214, 0
  br i1 %215, label %220, label %216

216:                                              ; preds = %207
  %217 = load ptr, ptr %4, align 8, !tbaa !36
  %218 = getelementptr inbounds nuw %struct.OptExactInfo, ptr %217, i32 0, i32 1
  %219 = getelementptr inbounds nuw %struct.OptAncInfo, ptr %218, i32 0, i32 1
  store i32 0, ptr %219, align 4, !tbaa !287
  br label %220

220:                                              ; preds = %216, %207
  store i32 0, ptr %10, align 4
  br label %221

221:                                              ; preds = %220, %29, %20
  call void @llvm.lifetime.end.p0(i64 4, ptr %9) #11
  call void @llvm.lifetime.end.p0(i64 4, ptr %8) #11
  call void @llvm.lifetime.end.p0(i64 4, ptr %7) #11
  %222 = load i32, ptr %10, align 4
  switch i32 %222, label %224 [
    i32 0, label %223
    i32 1, label %223
  ]

223:                                              ; preds = %221, %221
  ret void

224:                                              ; preds = %221
  unreachable
}