; Function Attrs: nounwind sspstrong uwtable
define internal fastcc void @alt_merge_opt_exact_info(ptr noundef nonnull %0, ptr noundef nonnull readonly captures(none) %1, ptr noundef nonnull readonly captures(none) %2) unnamed_addr #4 {
  %4 = getelementptr inbounds nuw i8, ptr %1, i64 32
  %5 = load i32, ptr %4, align 8, !tbaa !94
  %6 = icmp eq i32 %5, 0
  br i1 %6, label %11, label %7

7:                                                ; preds = %3
  %8 = getelementptr inbounds nuw i8, ptr %0, i64 32
  %9 = load i32, ptr %8, align 8, !tbaa !94
  %10 = icmp eq i32 %9, 0
  br i1 %10, label %11, label %14

11:                                               ; preds = %7, %3
  %12 = getelementptr inbounds nuw i8, ptr %0, i64 28
  tail call void @llvm.memset.p0.i64(ptr noundef nonnull align 8 dereferenceable(28) %0, i8 0, i64 28, i1 false)
  store i32 -1, ptr %12, align 4, !tbaa !95
  %13 = getelementptr inbounds nuw i8, ptr %0, i64 32
  store i32 0, ptr %13, align 8, !tbaa !94
  br label %.sink.split86

14:                                               ; preds = %7
  %15 = load i64, ptr %0, align 8, !tbaa !97
  %16 = load i64, ptr %1, align 8, !tbaa !97
  %17 = icmp eq i64 %15, %16
  br i1 %17, label %is_equal_mml.exit, label %is_equal_mml.exit.thread

is_equal_mml.exit:                                ; preds = %14
  %18 = getelementptr inbounds nuw i8, ptr %0, i64 8
  %19 = load i64, ptr %18, align 8, !tbaa !96
  %20 = getelementptr inbounds nuw i8, ptr %1, i64 8
  %21 = load i64, ptr %20, align 8, !tbaa !96
  %.not = icmp eq i64 %19, %21
  br i1 %.not, label %.preheader, label %is_equal_mml.exit.thread

.preheader:                                       ; preds = %is_equal_mml.exit
  %22 = icmp sgt i32 %9, 0
  br i1 %22, label %.lr.ph76, label %.critedge

.lr.ph76:                                         ; preds = %.preheader
  %23 = getelementptr inbounds nuw i8, ptr %0, i64 36
  %24 = getelementptr inbounds nuw i8, ptr %1, i64 36
  %25 = getelementptr inbounds nuw i8, ptr %2, i64 16
  br label %27

is_equal_mml.exit.thread:                         ; preds = %14, %is_equal_mml.exit
  %26 = getelementptr inbounds nuw i8, ptr %0, i64 28
  tail call void @llvm.memset.p0.i64(ptr noundef nonnull align 8 dereferenceable(28) %0, i8 0, i64 28, i1 false)
  store i32 -1, ptr %26, align 4, !tbaa !95
  store i32 0, ptr %8, align 8, !tbaa !94
  br label %.sink.split86

27:                                               ; preds = %.lr.ph76, %.critedge67
  %28 = phi i32 [ %9, %.lr.ph76 ], [ %62, %.critedge67 ]
  %.075 = phi i32 [ 0, %.lr.ph76 ], [ %61, %.critedge67 ]
  %29 = load i32, ptr %4, align 8, !tbaa !94
  %30 = icmp slt i32 %.075, %29
  br i1 %30, label %31, label %.critedge

31:                                               ; preds = %27
  %32 = sext i32 %.075 to i64
  %33 = getelementptr [24 x i8], ptr %23, i64 0, i64 %32
  %34 = load i8, ptr %33, align 1, !tbaa !34
  %35 = getelementptr [24 x i8], ptr %24, i64 0, i64 %32
  %36 = load i8, ptr %35, align 1, !tbaa !34
  %.not62 = icmp eq i8 %34, %36
  br i1 %.not62, label %37, label %.critedge

37:                                               ; preds = %31
  %38 = load ptr, ptr %25, align 8, !tbaa !74
  %39 = getelementptr inbounds nuw i8, ptr %38, i64 16
  %40 = load i32, ptr %39, align 8, !tbaa !159
  %41 = getelementptr inbounds nuw i8, ptr %38, i64 20
  %42 = load i32, ptr %41, align 4, !tbaa !160
  %43 = icmp eq i32 %40, %42
  %44 = sext i32 %28 to i64
  %45 = getelementptr i8, ptr %23, i64 %44
  br i1 %43, label %46, label %48

46:                                               ; preds = %37
  %47 = icmp ult ptr %33, %45
  br i1 %47, label %select.unfold, label %.critedge67

48:                                               ; preds = %37
  %49 = tail call i32 @onigenc_mbclen(ptr noundef nonnull %33, ptr noundef %45, ptr noundef nonnull %38) #20
  br label %select.unfold

select.unfold:                                    ; preds = %46, %48
  %50 = phi i32 [ %49, %48 ], [ %40, %46 ]
  %51 = icmp sgt i32 %50, 1
  br i1 %51, label %.lr.ph.preheader, label %.critedge67

.lr.ph.preheader:                                 ; preds = %select.unfold
  %wide.trip.count = zext nneg i32 %50 to i64
  br label %.lr.ph

52:                                               ; preds = %.lr.ph
  %indvars.iv.next = add nuw nsw i64 %indvars.iv, 1
  %exitcond.not = icmp eq i64 %indvars.iv.next, %wide.trip.count
  br i1 %exitcond.not, label %.critedge67, label %.lr.ph, !llvm.loop !286

.lr.ph:                                           ; preds = %.lr.ph.preheader, %52
  %indvars.iv = phi i64 [ 1, %.lr.ph.preheader ], [ %indvars.iv.next, %52 ]
  %53 = trunc nuw nsw i64 %indvars.iv to i32
  %54 = add i32 %.075, %53
  %55 = sext i32 %54 to i64
  %56 = getelementptr [24 x i8], ptr %23, i64 0, i64 %55
  %57 = load i8, ptr %56, align 1, !tbaa !34
  %58 = getelementptr [24 x i8], ptr %24, i64 0, i64 %55
  %59 = load i8, ptr %58, align 1, !tbaa !34
  %.not63 = icmp eq i8 %57, %59
  br i1 %.not63, label %52, label %.critedge

.critedge67:                                      ; preds = %52, %46, %select.unfold
  %60 = phi i32 [ %50, %select.unfold ], [ 0, %46 ], [ %50, %52 ]
  %61 = add i32 %60, %.075
  %62 = load i32, ptr %8, align 8, !tbaa !94
  %63 = icmp slt i32 %61, %62
  br i1 %63, label %27, label %.critedge, !llvm.loop !287

.critedge:                                        ; preds = %27, %31, %.critedge67, %.lr.ph, %.preheader
  %.072 = phi i32 [ 0, %.preheader ], [ %.075, %.lr.ph ], [ %.075, %27 ], [ %.075, %31 ], [ %61, %.critedge67 ]
  %64 = getelementptr inbounds nuw i8, ptr %1, i64 24
  %65 = load i32, ptr %64, align 8, !tbaa !259
  %.not64 = icmp eq i32 %65, 0
  br i1 %.not64, label %72, label %66

66:                                               ; preds = %.critedge
  %67 = load i32, ptr %4, align 8, !tbaa !94
  %68 = icmp slt i32 %.072, %67
  br i1 %68, label %72, label %69

69:                                               ; preds = %66
  %70 = load i32, ptr %8, align 8, !tbaa !94
  %71 = icmp slt i32 %.072, %70
  br i1 %71, label %72, label %74

72:                                               ; preds = %69, %66, %.critedge
  %73 = getelementptr inbounds nuw i8, ptr %0, i64 24
  store i32 0, ptr %73, align 8, !tbaa !259
  br label %74

74:                                               ; preds = %72, %69
  store i32 %.072, ptr %8, align 8, !tbaa !94
  %75 = getelementptr inbounds nuw i8, ptr %0, i64 28
  %76 = load i32, ptr %75, align 4, !tbaa !95
  %77 = icmp slt i32 %76, 0
  %78 = getelementptr inbounds nuw i8, ptr %1, i64 28
  %79 = load i32, ptr %78, align 4, !tbaa !95
  br i1 %77, label %.sink.split, label %80

80:                                               ; preds = %74
  %81 = icmp sgt i32 %79, -1
  br i1 %81, label %82, label %84

82:                                               ; preds = %80
  %83 = or i32 %79, %76
  br label %.sink.split

.sink.split:                                      ; preds = %74, %82
  %.sink = phi i32 [ %83, %82 ], [ %79, %74 ]
  store i32 %.sink, ptr %75, align 4, !tbaa !95
  br label %84

84:                                               ; preds = %.sink.split, %80
  %85 = getelementptr inbounds nuw i8, ptr %0, i64 16
  %86 = getelementptr inbounds nuw i8, ptr %1, i64 16
  %.val = load i32, ptr %86, align 4, !tbaa !110
  %87 = getelementptr i8, ptr %1, i64 20
  %.val68 = load i32, ptr %87, align 4, !tbaa !111
  %88 = load i32, ptr %85, align 4, !tbaa !110
  %89 = and i32 %88, %.val
  store i32 %89, ptr %85, align 4, !tbaa !110
  %90 = getelementptr inbounds nuw i8, ptr %0, i64 20
  %91 = load i32, ptr %90, align 4, !tbaa !111
  %92 = and i32 %91, %.val68
  store i32 %92, ptr %90, align 4, !tbaa !111
  %93 = getelementptr inbounds nuw i8, ptr %0, i64 24
  %94 = load i32, ptr %93, align 8, !tbaa !259
  %.not65 = icmp eq i32 %94, 0
  %spec.store.select = select i1 %.not65, i32 0, i32 %92
  store i32 %spec.store.select, ptr %90, align 4
  br label %96

.sink.split86:                                    ; preds = %11, %is_equal_mml.exit.thread
  %95 = getelementptr inbounds nuw i8, ptr %0, i64 36
  store i8 0, ptr %95, align 4, !tbaa !34
  br label %96

96:                                               ; preds = %84, %.sink.split86
  ret void
}